target datalayout = "e-m:e-p270:32:32-p271:32:32-p272:64:64-i64:64-i128:128-f80:128-n8:16:32:64-S128"
target triple = "x86_64-pc-linux-gnu"

%struct.rhash_context_ext = type { %struct.rhash_context, i32, i32, i32, ptr, ptr, ptr, [0 x %struct.rhash_vector_item] }
%struct.rhash_context = type { i64, i32 }
%struct.rhash_vector_item = type { ptr, ptr }
%struct.rhash_hash_info = type { ptr, i64, i64, ptr, ptr, ptr, ptr }

; Function Attrs: nounwind uwtable
define dso_local void @rhash_reset(ptr noundef %0) #0 {
  %2 = alloca ptr, align 8
  %3 = alloca ptr, align 8
  %4 = alloca i32, align 4
  %5 = alloca ptr, align 8
  store ptr %0, ptr %2, align 8, !tbaa !33
  call void @llvm.lifetime.start.p0(i64 8, ptr %3) #8
  %6 = load ptr, ptr %2, align 8, !tbaa !33
  store ptr %6, ptr %3, align 8, !tbaa !13
  call void @llvm.lifetime.start.p0(i64 4, ptr %4) #8
  %7 = load ptr, ptr %3, align 8, !tbaa !13
  %8 = getelementptr inbounds nuw %struct.rhash_context_ext, ptr %7, i32 0, i32 3
  store volatile i32 -1340228930, ptr %8, align 8, !tbaa !4
  store i32 0, ptr %4, align 4, !tbaa !4
  br label %9

9:                                                ; preds = %49, %1
  %10 = load i32, ptr %4, align 4, !tbaa !4
  %11 = load ptr, ptr %3, align 8, !tbaa !13
  %12 = getelementptr inbounds nuw %struct.rhash_context_ext, ptr %11, i32 0, i32 1
  %13 = load i32, ptr %12, align 8, !tbaa !4
  %14 = icmp ult i32 %10, %13
  br i1 %14, label %15, label %52

15:                                               ; preds = %9
  call void @llvm.lifetime.start.p0(i64 8, ptr %5) #8
  %16 = load ptr, ptr %3, align 8, !tbaa !13
  %17 = getelementptr inbounds nuw %struct.rhash_context_ext, ptr %16, i32 0, i32 7
  %18 = load i32, ptr %4, align 4, !tbaa !4
  %19 = zext i32 %18 to i64
  %20 = getelementptr inbounds nuw [0 x %struct.rhash_vector_item], ptr %17, i64 0, i64 %19
  %21 = getelementptr inbounds nuw %struct.rhash_vector_item, ptr %20, i32 0, i32 0
  %22 = load ptr, ptr %21, align 8, !tbaa !27
  store ptr %22, ptr %5, align 8, !tbaa !15
  %23 = load ptr, ptr %5, align 8, !tbaa !15
  %24 = getelementptr inbounds nuw %struct.rhash_hash_info, ptr %23, i32 0, i32 6
  %25 = load ptr, ptr %24, align 8, !tbaa !35
  %26 = icmp ne ptr %25, null
  br i1 %26, label %27, label %38

27:                                               ; preds = %15
  %28 = load ptr, ptr %5, align 8, !tbaa !15
  %29 = getelementptr inbounds nuw %struct.rhash_hash_info, ptr %28, i32 0, i32 6
  %30 = load ptr, ptr %29, align 8, !tbaa !35
  %31 = load ptr, ptr %3, align 8, !tbaa !13
  %32 = getelementptr inbounds nuw %struct.rhash_context_ext, ptr %31, i32 0, i32 7
  %33 = load i32, ptr %4, align 4, !tbaa !4
  %34 = zext i32 %33 to i64
  %35 = getelementptr inbounds nuw [0 x %struct.rhash_vector_item], ptr %32, i64 0, i64 %34
  %36 = getelementptr inbounds nuw %struct.rhash_vector_item, ptr %35, i32 0, i32 1
  %37 = load ptr, ptr %36, align 8, !tbaa !29
  call void %30(ptr noundef %37)
  br label %38

38:                                               ; preds = %27, %15
  %39 = load ptr, ptr %5, align 8, !tbaa !15
  %40 = getelementptr inbounds nuw %struct.rhash_hash_info, ptr %39, i32 0, i32 3
  %41 = load ptr, ptr %40, align 8, !tbaa !30
  %42 = load ptr, ptr %3, align 8, !tbaa !13
  %43 = getelementptr inbounds nuw %struct.rhash_context_ext, ptr %42, i32 0, i32 7
  %44 = load i32, ptr %4, align 4, !tbaa !4
  %45 = zext i32 %44 to i64
  %46 = getelementptr inbounds nuw [0 x %struct.rhash_vector_item], ptr %43, i64 0, i64 %45
  %47 = getelementptr inbounds nuw %struct.rhash_vector_item, ptr %46, i32 0, i32 1
  %48 = load ptr, ptr %47, align 8, !tbaa !29
  call void %41(ptr noundef %48)
  call void @llvm.lifetime.end.p0(i64 8, ptr %5) #8
  br label %49

49:                                               ; preds = %38
  %50 = load i32, ptr %4, align 4, !tbaa !4
  %51 = add i32 %50, 1
  store i32 %51, ptr %4, align 4, !tbaa !4
  br label %9, !llvm.loop !37

52:                                               ; preds = %9
  %53 = load ptr, ptr %3, align 8, !tbaa !13
  %54 = getelementptr inbounds nuw %struct.rhash_context_ext, ptr %53, i32 0, i32 2
  %55 = load i32, ptr %54, align 4, !tbaa !4
  %56 = and i32 %55, -3
  store i32 %56, ptr %54, align 4, !tbaa !4
  call void @llvm.lifetime.end.p0(i64 4, ptr %4) #8
  call void @llvm.lifetime.end.p0(i64 8, ptr %3) #8
  ret void
}