; Function Attrs: nounwind uwtable
define dso_local void @rhash_reset(ptr noundef %0) local_unnamed_addr #0 {
  %2 = getelementptr inbounds nuw i8, ptr %0, i64 24
  store volatile i32 -1340228930, ptr %2, align 8, !tbaa !4
  %3 = getelementptr inbounds nuw i8, ptr %0, i64 16
  %4 = load i32, ptr %3, align 8, !tbaa !4
  %.not16 = icmp eq i32 %4, 0
  br i1 %.not16, label %._crit_edge, label %.lr.ph

.lr.ph:                                           ; preds = %1
  %5 = getelementptr inbounds nuw i8, ptr %0, i64 56
  br label %6

6:                                                ; preds = %.lr.ph, %14
  %indvars.iv = phi i64 [ 0, %.lr.ph ], [ %indvars.iv.next, %14 ]
  %7 = getelementptr inbounds nuw [0 x %struct.rhash_vector_item], ptr %5, i64 0, i64 %indvars.iv
  %8 = load ptr, ptr %7, align 8, !tbaa !20
  %9 = getelementptr inbounds nuw i8, ptr %8, i64 48
  %10 = load ptr, ptr %9, align 8, !tbaa !26
  %.not = icmp eq ptr %10, null
  br i1 %.not, label %14, label %11

11:                                               ; preds = %6
  %12 = getelementptr inbounds nuw i8, ptr %7, i64 8
  %13 = load ptr, ptr %12, align 8, !tbaa !22
  tail call void %10(ptr noundef %13) #15
  br label %14

14:                                               ; preds = %11, %6
  %15 = getelementptr inbounds nuw i8, ptr %8, i64 24
  %16 = load ptr, ptr %15, align 8, !tbaa !23
  %17 = getelementptr inbounds nuw i8, ptr %7, i64 8
  %18 = load ptr, ptr %17, align 8, !tbaa !22
  tail call void %16(ptr noundef %18) #15
  %indvars.iv.next = add nuw nsw i64 %indvars.iv, 1
  %19 = load i32, ptr %3, align 8, !tbaa !4
  %20 = zext i32 %19 to i64
  %21 = icmp samesign ult i64 %indvars.iv.next, %20
  br i1 %21, label %6, label %._crit_edge, !llvm.loop !28

._crit_edge:                                      ; preds = %14, %1
  %22 = getelementptr inbounds nuw i8, ptr %0, i64 20
  %23 = load i32, ptr %22, align 4, !tbaa !4
  %24 = and i32 %23, -3
  store i32 %24, ptr %22, align 4, !tbaa !4
  ret void
}